target datalayout = "e-m:e-p270:32:32-p271:32:32-p272:64:64-i64:64-i128:128-f80:128-n8:16:32:64-S128"
target triple = "x86_64-pc-linux-gnu"

%struct.ident_t = type { i32, i32, i32, i32, ptr }
%"class.ncnn::Mat" = type { ptr, ptr, i64, i32, ptr, i32, i32, i32, i32, i32, i64 }

@1 = private unnamed_addr constant %struct.ident_t { i32 0, i32 514, i32 0, i32 22, ptr @0 }, align 8

; Function Attrs: noinline noreturn nounwind uwtable
define linkonce_odr hidden void @__clang_call_terminate(ptr noundef %0) #9 comdat {
  %2 = call ptr @__cxa_begin_catch(ptr %0) #15
  call void @_ZSt9terminatev() #19
  unreachable
}

; Function Attrs: inlinehint mustprogress nounwind uwtable
define linkonce_odr noundef nonnull align 4 dereferenceable(4) ptr @_ZSt3minIiERKT_S2_S2_(ptr noundef nonnull align 4 dereferenceable(4) %0, ptr noundef nonnull align 4 dereferenceable(4) %1) #1 comdat {
  %3 = alloca ptr, align 8
  %4 = alloca ptr, align 8
  %5 = alloca ptr, align 8
  store ptr %0, ptr %4, align 8, !tbaa !58
  store ptr %1, ptr %5, align 8, !tbaa !58
  %6 = load ptr, ptr %5, align 8, !tbaa !58
  %7 = load i32, ptr %6, align 4, !tbaa !48
  %8 = load ptr, ptr %4, align 8, !tbaa !58
  %9 = load i32, ptr %8, align 4, !tbaa !48
  %10 = icmp slt i32 %7, %9
  br i1 %10, label %11, label %13

11:                                               ; preds = %2
  %12 = load ptr, ptr %5, align 8, !tbaa !58
  store ptr %12, ptr %3, align 8
  br label %15

13:                                               ; preds = %2
  %14 = load ptr, ptr %4, align 8, !tbaa !58
  store ptr %14, ptr %3, align 8
  br label %15

15:                                               ; preds = %13, %11
  %16 = load ptr, ptr %3, align 8
  ret ptr %16
}

; Function Attrs: alwaysinline mustprogress nounwind uwtable
define linkonce_odr hidden noundef ptr @_ZN4ncnn3Mat3rowEi(ptr noundef nonnull align 8 dereferenceable(72) %0, i32 noundef %1) #5 comdat align 2 {
  %3 = alloca ptr, align 8
  %4 = alloca i32, align 4
  store ptr %0, ptr %3, align 8, !tbaa !44
  store i32 %1, ptr %4, align 4, !tbaa !48
  %5 = load ptr, ptr %3, align 8
  %6 = getelementptr inbounds nuw %"class.ncnn::Mat", ptr %5, i32 0, i32 0
  %7 = load ptr, ptr %6, align 8, !tbaa !64
  %8 = getelementptr inbounds nuw %"class.ncnn::Mat", ptr %5, i32 0, i32 6
  %9 = load i32, ptr %8, align 4, !tbaa !45
  %10 = sext i32 %9 to i64
  %11 = load i32, ptr %4, align 4, !tbaa !48
  %12 = sext i32 %11 to i64
  %13 = mul i64 %10, %12
  %14 = getelementptr inbounds nuw %"class.ncnn::Mat", ptr %5, i32 0, i32 2
  %15 = load i64, ptr %14, align 8, !tbaa !52
  %16 = mul i64 %13, %15
  %17 = getelementptr inbounds nuw i8, ptr %7, i64 %16
  ret ptr %17
}

; Function Attrs: alwaysinline mustprogress nounwind uwtable
define linkonce_odr hidden noundef ptr @_ZNK4ncnn3Mat3rowEi(ptr noundef nonnull align 8 dereferenceable(72) %0, i32 noundef %1) #5 comdat align 2 {
  %3 = alloca ptr, align 8
  %4 = alloca i32, align 4
  store ptr %0, ptr %3, align 8, !tbaa !44
  store i32 %1, ptr %4, align 4, !tbaa !48
  %5 = load ptr, ptr %3, align 8
  %6 = getelementptr inbounds nuw %"class.ncnn::Mat", ptr %5, i32 0, i32 0
  %7 = load ptr, ptr %6, align 8, !tbaa !64
  %8 = getelementptr inbounds nuw %"class.ncnn::Mat", ptr %5, i32 0, i32 6
  %9 = load i32, ptr %8, align 4, !tbaa !45
  %10 = sext i32 %9 to i64
  %11 = load i32, ptr %4, align 4, !tbaa !48
  %12 = sext i32 %11 to i64
  %13 = mul i64 %10, %12
  %14 = getelementptr inbounds nuw %"class.ncnn::Mat", ptr %5, i32 0, i32 2
  %15 = load i64, ptr %14, align 8, !tbaa !52
  %16 = mul i64 %13, %15
  %17 = getelementptr inbounds nuw i8, ptr %7, i64 %16
  ret ptr %17
}

; Function Attrs: alwaysinline norecurse nounwind uwtable
define internal void @_ZNK4ncnn6Interp7forwardERKSt6vectorINS_3MatESaIS2_EERS4_RKNS_6OptionE.omp_outlined.3(ptr noalias noundef %0, ptr noalias noundef %1, ptr noundef nonnull align 4 dereferenceable(4) %2, ptr noundef nonnull align 8 dereferenceable(72) %3, ptr noundef nonnull align 8 dereferenceable(72) %4, ptr noundef nonnull align 4 dereferenceable(4) %5, ptr noundef nonnull align 4 dereferenceable(4) %6, ptr noundef nonnull align 4 dereferenceable(4) %7) #14 personality ptr @__gxx_personality_v0 {
  %9 = alloca ptr, align 8
  %10 = alloca ptr, align 8
  %11 = alloca ptr, align 8
  %12 = alloca ptr, align 8
  %13 = alloca ptr, align 8
  %14 = alloca ptr, align 8
  %15 = alloca ptr, align 8
  %16 = alloca ptr, align 8
  %17 = alloca ptr, align 8
  %18 = alloca ptr, align 8
  %19 = alloca i32, align 4
  %20 = alloca i32, align 4
  %21 = alloca i32, align 4
  %22 = alloca i32, align 4
  %23 = alloca i32, align 4
  %24 = alloca i32, align 4
  %25 = alloca i32, align 4
  %26 = alloca i32, align 4
  %27 = alloca i32, align 4
  %28 = alloca ptr, align 8
  %29 = alloca ptr, align 8
  %30 = alloca i32, align 4
  %31 = alloca i32, align 4
  %32 = alloca i32, align 4
  %33 = alloca i32, align 4
  store ptr %0, ptr %9, align 8, !tbaa !58
  store ptr %1, ptr %10, align 8, !tbaa !58
  store ptr %2, ptr %11, align 8, !tbaa !58
  store ptr %3, ptr %12, align 8, !tbaa !44
  store ptr %4, ptr %13, align 8, !tbaa !44
  store ptr %5, ptr %14, align 8, !tbaa !58
  store ptr %6, ptr %15, align 8, !tbaa !59
  store ptr %7, ptr %16, align 8, !tbaa !58
  %34 = load ptr, ptr %11, align 8, !tbaa !58
  %35 = load ptr, ptr %12, align 8, !tbaa !44
  %36 = load ptr, ptr %13, align 8, !tbaa !44
  %37 = load ptr, ptr %14, align 8, !tbaa !58
  %38 = load ptr, ptr %15, align 8, !tbaa !59
  %39 = load ptr, ptr %16, align 8, !tbaa !58
  store ptr %35, ptr %17, align 8
  store ptr %36, ptr %18, align 8
  call void @llvm.lifetime.start.p0(i64 4, ptr %19) #15
  call void @llvm.lifetime.start.p0(i64 4, ptr %20) #15
  %40 = load i32, ptr %34, align 4, !tbaa !48
  store i32 %40, ptr %20, align 4, !tbaa !48
  call void @llvm.lifetime.start.p0(i64 4, ptr %21) #15
  %41 = load i32, ptr %20, align 4, !tbaa !48
  %42 = sub nsw i32 %41, 0
  %43 = sdiv i32 %42, 1
  %44 = sub nsw i32 %43, 1
  store i32 %44, ptr %21, align 4, !tbaa !48
  call void @llvm.lifetime.start.p0(i64 4, ptr %22) #15
  store i32 0, ptr %22, align 4, !tbaa !48
  call void @llvm.lifetime.end.p0(i64 4, ptr %22) #15
  %45 = load i32, ptr %20, align 4, !tbaa !48
  %46 = icmp slt i32 0, %45
  br i1 %46, label %47, label %113

47:                                               ; preds = %8
  call void @llvm.lifetime.start.p0(i64 4, ptr %23) #15
  store i32 0, ptr %23, align 4, !tbaa !48
  call void @llvm.lifetime.start.p0(i64 4, ptr %24) #15
  %48 = load i32, ptr %21, align 4, !tbaa !48
  store i32 %48, ptr %24, align 4, !tbaa !48
  call void @llvm.lifetime.start.p0(i64 4, ptr %25) #15
  store i32 1, ptr %25, align 4, !tbaa !48
  call void @llvm.lifetime.start.p0(i64 4, ptr %26) #15
  store i32 0, ptr %26, align 4, !tbaa !48
  call void @llvm.lifetime.start.p0(i64 4, ptr %27) #15
  %49 = load ptr, ptr %9, align 8
  %50 = load i32, ptr %49, align 4, !tbaa !48
  call void @__kmpc_for_static_init_4(ptr @1, i32 %50, i32 34, ptr %26, ptr %23, ptr %24, ptr %25, i32 1, i32 1)
  %51 = load i32, ptr %24, align 4, !tbaa !48
  %52 = load i32, ptr %21, align 4, !tbaa !48
  %53 = icmp sgt i32 %51, %52
  br i1 %53, label %54, label %56

54:                                               ; preds = %47
  %55 = load i32, ptr %21, align 4, !tbaa !48
  br label %58

56:                                               ; preds = %47
  %57 = load i32, ptr %24, align 4, !tbaa !48
  br label %58

58:                                               ; preds = %56, %54
  %59 = phi i32 [ %55, %54 ], [ %57, %56 ]
  store i32 %59, ptr %24, align 4, !tbaa !48
  %60 = load i32, ptr %23, align 4, !tbaa !48
  store i32 %60, ptr %19, align 4, !tbaa !48
  br label %61

61:                                               ; preds = %106, %58
  %62 = load i32, ptr %19, align 4, !tbaa !48
  %63 = load i32, ptr %24, align 4, !tbaa !48
  %64 = icmp sle i32 %62, %63
  br i1 %64, label %66, label %65

65:                                               ; preds = %61
  br label %109

66:                                               ; preds = %61
  %67 = load i32, ptr %19, align 4, !tbaa !48
  %68 = mul nsw i32 %67, 1
  %69 = add nsw i32 0, %68
  store i32 %69, ptr %27, align 4, !tbaa !48
  call void @llvm.lifetime.start.p0(i64 8, ptr %28) #15
  %70 = load ptr, ptr %17, align 8, !tbaa !44
  %71 = load i32, ptr %27, align 4, !tbaa !48
  %72 = invoke noundef ptr @_ZNK4ncnn3Mat3rowEi(ptr noundef nonnull align 8 dereferenceable(72) %70, i32 noundef %71)
          to label %73 unwind label %114

73:                                               ; preds = %66
  store ptr %72, ptr %28, align 8, !tbaa !59
  call void @llvm.lifetime.start.p0(i64 8, ptr %29) #15
  %74 = load ptr, ptr %18, align 8, !tbaa !44
  %75 = load i32, ptr %27, align 4, !tbaa !48
  %76 = invoke noundef ptr @_ZN4ncnn3Mat3rowEi(ptr noundef nonnull align 8 dereferenceable(72) %74, i32 noundef %75)
          to label %77 unwind label %114

77:                                               ; preds = %73
  store ptr %76, ptr %29, align 8, !tbaa !59
  call void @llvm.lifetime.start.p0(i64 4, ptr %30) #15
  store i32 0, ptr %30, align 4, !tbaa !48
  br label %78

78:                                               ; preds = %101, %77
  %79 = load i32, ptr %30, align 4, !tbaa !48
  %80 = load i32, ptr %37, align 4, !tbaa !48
  %81 = icmp slt i32 %79, %80
  br i1 %81, label %83, label %82

82:                                               ; preds = %78
  call void @llvm.lifetime.end.p0(i64 4, ptr %30) #15
  br label %104

83:                                               ; preds = %78
  call void @llvm.lifetime.start.p0(i64 4, ptr %31) #15
  call void @llvm.lifetime.start.p0(i64 4, ptr %32) #15
  %84 = load i32, ptr %30, align 4, !tbaa !48
  %85 = sitofp i32 %84 to float
  %86 = load float, ptr %38, align 4, !tbaa !57
  %87 = fmul fast float %85, %86
  %88 = fptosi float %87 to i32
  store i32 %88, ptr %32, align 4, !tbaa !48
  call void @llvm.lifetime.start.p0(i64 4, ptr %33) #15
  %89 = load i32, ptr %39, align 4, !tbaa !48
  %90 = sub nsw i32 %89, 1
  store i32 %90, ptr %33, align 4, !tbaa !48
  %91 = invoke noundef nonnull align 4 dereferenceable(4) ptr @_ZSt3minIiERKT_S2_S2_(ptr noundef nonnull align 4 dereferenceable(4) %32, ptr noundef nonnull align 4 dereferenceable(4) %33)
          to label %92 unwind label %114

92:                                               ; preds = %83
  %93 = load i32, ptr %91, align 4, !tbaa !48
  call void @llvm.lifetime.end.p0(i64 4, ptr %33) #15
  call void @llvm.lifetime.end.p0(i64 4, ptr %32) #15
  store i32 %93, ptr %31, align 4, !tbaa !48
  %94 = load ptr, ptr %28, align 8, !tbaa !59
  %95 = load i32, ptr %31, align 4, !tbaa !48
  %96 = sext i32 %95 to i64
  %97 = getelementptr inbounds float, ptr %94, i64 %96
  %98 = load float, ptr %97, align 4, !tbaa !57
  %99 = load ptr, ptr %29, align 8, !tbaa !59
  %100 = getelementptr inbounds nuw float, ptr %99, i32 1
  store ptr %100, ptr %29, align 8, !tbaa !59
  store float %98, ptr %99, align 4, !tbaa !57
  call void @llvm.lifetime.end.p0(i64 4, ptr %31) #15
  br label %101

101:                                              ; preds = %92
  %102 = load i32, ptr %30, align 4, !tbaa !48
  %103 = add nsw i32 %102, 1
  store i32 %103, ptr %30, align 4, !tbaa !48
  br label %78, !llvm.loop !93

104:                                              ; preds = %82
  call void @llvm.lifetime.end.p0(i64 8, ptr %29) #15
  call void @llvm.lifetime.end.p0(i64 8, ptr %28) #15
  br label %105

105:                                              ; preds = %104
  br label %106

106:                                              ; preds = %105
  %107 = load i32, ptr %19, align 4, !tbaa !48
  %108 = add nsw i32 %107, 1
  store i32 %108, ptr %19, align 4, !tbaa !48
  br label %61

109:                                              ; preds = %65
  br label %110

110:                                              ; preds = %109
  %111 = load ptr, ptr %9, align 8
  %112 = load i32, ptr %111, align 4, !tbaa !48
  call void @__kmpc_for_static_fini(ptr @1, i32 %112)
  call void @llvm.lifetime.end.p0(i64 4, ptr %27) #15
  call void @llvm.lifetime.end.p0(i64 4, ptr %26) #15
  call void @llvm.lifetime.end.p0(i64 4, ptr %25) #15
  call void @llvm.lifetime.end.p0(i64 4, ptr %24) #15
  call void @llvm.lifetime.end.p0(i64 4, ptr %23) #15
  br label %113

113:                                              ; preds = %110, %8
  call void @llvm.lifetime.end.p0(i64 4, ptr %21) #15
  call void @llvm.lifetime.end.p0(i64 4, ptr %20) #15
  call void @llvm.lifetime.end.p0(i64 4, ptr %19) #15
  ret void

114:                                              ; preds = %83, %73, %66
  %115 = landingpad { ptr, i32 }
          catch ptr null
  %116 = extractvalue { ptr, i32 } %115, 0
  call void @__clang_call_terminate(ptr %116) #19
  unreachable
}